(dp0
Vfullscreen_mode
p1
I0
sVorientation
p2
Vhorizontal
p3
sVfocus
p4
(lp5
I30154304
aI30152592
asVurgent
p6
I00
sVlast_split_layout
p7
Vsplith
p8
sVfloating
p9
Vauto_off
p10
sVborder
p11
Vpixel
p12
sVid
p13
I30150160
sVcurrent_border_width
p14
I-1
sVlayout
p15
Vsplith
p16
sVpercent
p17
F1.0
sVworkspace_layout
p18
Vdefault
p19
sVwindow
p20
NsVnodes
p21
(lp22
(dp23
Vfullscreen_mode
p24
I0
sVorientation
p25
Vnone
p26
sVfocus
p27
(lp28
I30153024
asVurgent
p29
I00
sVlast_split_layout
p30
Vsplith
p31
sVfloating
p32
Vauto_off
p33
sVborder
p34
Vpixel
p35
sVid
p36
I30152592
sVcurrent_border_width
p37
I-1
sVlayout
p38
Voutput
p39
sVpercent
p40
F0.5
sVworkspace_layout
p41
Vdefault
p42
sVwindow
p43
NsVnodes
p44
(lp45
(dp46
Vfullscreen_mode
p47
I0
sVorientation
p48
Vhorizontal
p49
sVfocus
p50
(lp51
I30153456
asVurgent
p52
I00
sVlast_split_layout
p53
Vsplith
p54
sVfloating
p55
Vauto_off
p56
sVborder
p57
Vpixel
p58
sVid
p59
I30153024
sVcurrent_border_width
p60
I-1
sVlayout
p61
Vsplith
p62
sVpercent
p63
F1.0
sVworkspace_layout
p64
Vdefault
p65
sVwindow
p66
NsVnodes
p67
(lp68
(dp69
Vfullscreen_mode
p70
I1
sVorientation
p71
Vnone
p72
sVfocus
p73
(lp74
sVurgent
p75
I00
sVnum
p76
I-1
sVlast_split_layout
p77
Vsplith
p78
sVfloating
p79
Vauto_off
p80
sVborder
p81
Vpixel
p82
sVid
p83
I30153456
sVcurrent_border_width
p84
I-1
sVlayout
p85
Vsplith
p86
sVpercent
p87
F1.0
sVworkspace_layout
p88
Vdefault
p89
sVwindow
p90
NsVnodes
p91
(lp92
sVtype
p93
Vworkspace
p94
sVswallows
p95
(lp96
sVfocused
p97
I00
sVscratchpad_state
p98
Vnone
p99
sVrect
p100
(dp101
Vy
p102
I0
sVx
p103
I0
sVheight
p104
I0
sVwidth
p105
I0
ssVwindow_rect
p106
(dp107
g102
I0
sg103
I0
sVheight
p108
I0
sVwidth
p109
I0
ssVname
p110
V__i3_scratch
p111
sVgeometry
p112
(dp113
g102
I0
sg103
I0
sVheight
p114
I0
sVwidth
p115
I0
ssVfloating_nodes
p116
(lp117
sasVtype
p118
Vcon
p119
sVswallows
p120
(lp121
sVfocused
p122
I00
sVscratchpad_state
p123
Vnone
p124
sVrect
p125
(dp126
g102
I0
sg103
I0
sVheight
p127
I0
sVwidth
p128
I0
ssVwindow_rect
p129
(dp130
g102
I0
sg103
I0
sVheight
p131
I0
sVwidth
p132
I0
ssVname
p133
Vcontent
p134
sVgeometry
p135
(dp136
g102
I0
sg103
I0
sVheight
p137
I0
sVwidth
p138
I0
ssVfloating_nodes
p139
(lp140
sasVtype
p141
Voutput
p142
sVswallows
p143
(lp144
sVfocused
p145
I00
sVscratchpad_state
p146
Vnone
p147
sVrect
p148
(dp149
g102
I0
sg103
I0
sVheight
p150
I1080
sVwidth
p151
I1920
ssVwindow_rect
p152
(dp153
g102
I0
sg103
I0
sVheight
p154
I0
sVwidth
p155
I0
ssVname
p156
V__i3
p157
sVgeometry
p158
(dp159
g102
I0
sg103
I0
sVheight
p160
I0
sVwidth
p161
I0
ssVfloating_nodes
p162
(lp163
sa(dp164
Vfullscreen_mode
p165
I0
sVorientation
p166
Vnone
p167
sVfocus
p168
(lp169
I30908208
aI30154704
aI30915184
asVurgent
p170
I00
sVlast_split_layout
p171
Vsplith
p172
sVfloating
p173
Vauto_off
p174
sVborder
p175
Vpixel
p176
sVid
p177
I30154304
sVcurrent_border_width
p178
I-1
sVlayout
p179
Voutput
p180
sVpercent
p181
F0.5
sVworkspace_layout
p182
Vdefault
p183
sVwindow
p184
NsVnodes
p185
(lp186
(dp187
Vfullscreen_mode
p188
I0
sVorientation
p189
Vnone
p190
sVfocus
p191
(lp192
I30927520
asVurgent
p193
I00
sVlast_split_layout
p194
Vsplith
p195
sVfloating
p196
Vauto_off
p197
sVborder
p198
Vpixel
p199
sVid
p200
I30154704
sVcurrent_border_width
p201
I-1
sVlayout
p202
Vdockarea
p203
sVpercent
p204
F0.3333333333333333
sVworkspace_layout
p205
Vdefault
p206
sVwindow
p207
NsVnodes
p208
(lp209
(dp210
Vwindow_properties
p211
(dp212
Vinstance
p213
Vi3bar
p214
sVclass
p215
Vi3bar
p216
sVtitle
p217
Vi3bar for output LVDS1
p218
ssVfullscreen_mode
p219
I0
sVorientation
p220
Vnone
p221
sVprocess
p222
S'i3bar'
p223
sVfocus
p224
(lp225
sVurgent
p226
I00
sVlast_split_layout
p227
Vsplith
p228
sVfloating
p229
Vauto_off
p230
sVborder
p231
Vpixel
p232
sVid
p233
I30927520
sVcurrent_border_width
p234
I-1
sVlayout
p235
Vsplith
p236
sVpercent
p237
F1.0
sVworkspace_layout
p238
Vdefault
p239
sVwindow
p240
I27262983
sVnodes
p241
(lp242
sVtype
p243
Vcon
p244
sVswallows
p245
(lp246
sVfocused
p247
I00
sVscratchpad_state
p248
Vnone
p249
sVrect
p250
(dp251
g102
I0
sg103
I0
sVheight
p252
I17
sVwidth
p253
I1920
ssVwindow_rect
p254
(dp255
g102
I0
sg103
I0
sVheight
p256
I17
sVwidth
p257
I1920
ssVname
p258
Vi3bar for output LVDS1
p259
sVgeometry
p260
(dp261
g102
I1063
sg103
I0
sVheight
p262
I17
sVwidth
p263
I1920
ssVfloating_nodes
p264
(lp265
sasVtype
p266
Vdockarea
p267
sVswallows
p268
(lp269
(dp270
Vdock
p271
I2
sVinsert_where
p272
I2
sasVfocused
p273
I00
sVscratchpad_state
p274
Vnone
p275
sVrect
p276
(dp277
g102
I0
sg103
I0
sVheight
p278
I17
sVwidth
p279
I1920
ssVwindow_rect
p280
(dp281
g102
I0
sg103
I0
sVheight
p282
I0
sVwidth
p283
I0
ssVname
p284
Vtopdock
p285
sVgeometry
p286
(dp287
g102
I0
sg103
I0
sVheight
p288
I0
sVwidth
p289
I0
ssVfloating_nodes
p290
(lp291
sa(dp292
Vfullscreen_mode
p293
I0
sVorientation
p294
Vhorizontal
p295
sVfocus
p296
(lp297
I30908608
aI30909920
aI30911184
aI30913680
asVurgent
p298
I00
sVlast_split_layout
p299
Vsplith
p300
sVfloating
p301
Vauto_off
p302
sVborder
p303
Vpixel
p304
sVid
p305
I30908208
sVcurrent_border_width
p306
I-1
sVlayout
p307
Vsplith
p308
sVpercent
p309
F0.3333333333333333
sVworkspace_layout
p310
Vdefault
p311
sVwindow
p312
NsVnodes
p313
(lp314
(dp315
Vfullscreen_mode
p316
I1
sVorientation
p317
Vhorizontal
p318
sVfocus
p319
(lp320
I30909040
asVurgent
p321
I00
sVnum
p322
I1
sVlast_split_layout
p323
Vsplith
p324
sVfloating
p325
Vauto_off
p326
sVborder
p327
Vpixel
p328
sVid
p329
I30908608
sVcurrent_border_width
p330
I-1
sVlayout
p331
Vsplith
p332
sVpercent
p333
F0.25
sVworkspace_layout
p334
Vdefault
p335
sVwindow
p336
NsVnodes
p337
(lp338
(dp339
Vwindow_properties
p340
(dp341
Vinstance
p342
Vurxvt
p343
sVclass
p344
VURxvt
p345
sVtitle
p346
Vurxvt
p347
ssVfullscreen_mode
p348
I0
sVorientation
p349
Vnone
p350
sg222
S'urxvt'
p351
sVfocus
p352
(lp353
sVurgent
p354
I00
sVlast_split_layout
p355
Vsplith
p356
sVfloating
p357
Vauto_off
p358
sVborder
p359
Vpixel
p360
sVid
p361
I30909040
sVcurrent_border_width
p362
I-1
sVlayout
p363
Vsplith
p364
sVpercent
p365
F1.0
sVworkspace_layout
p366
Vdefault
p367
sVwindow
p368
I37748746
sVnodes
p369
(lp370
sVtype
p371
Vcon
p372
sVswallows
p373
(lp374
sVfocused
p375
I01
sVscratchpad_state
p376
Vnone
p377
sVrect
p378
(dp379
g102
I17
sg103
I0
sVheight
p380
I1063
sVwidth
p381
I1920
ssVwindow_rect
p382
(dp383
g102
I1
sg103
I1
sVheight
p384
I1061
sVwidth
p385
I1918
ssVname
p386
Vurxvt
p387
sVgeometry
p388
(dp389
g102
I0
sg103
I0
sVheight
p390
I304
sVwidth
p391
I484
ssVfloating_nodes
p392
(lp393
sasVtype
p394
Vworkspace
p395
sVswallows
p396
(lp397
sVfocused
p398
I00
sVscratchpad_state
p399
Vnone
p400
sVrect
p401
(dp402
g102
I17
sg103
I0
sVheight
p403
I1063
sVwidth
p404
I1920
ssVwindow_rect
p405
(dp406
g102
I0
sg103
I0
sVheight
p407
I0
sVwidth
p408
I0
ssVname
p409
V1:Term
p410
sVgeometry
p411
(dp412
g102
I0
sg103
I0
sVheight
p413
I0
sVwidth
p414
I0
ssVfloating_nodes
p415
(lp416
sa(dp417
Vfullscreen_mode
p418
I0
sVorientation
p419
Vhorizontal
p420
sVfocus
p421
(lp422
I30910320
asVurgent
p423
I00
sVnum
p424
I2
sVlast_split_layout
p425
Vsplith
p426
sVfloating
p427
Vauto_off
p428
sVborder
p429
Vpixel
p430
sVid
p431
I30909920
sVcurrent_border_width
p432
I-1
sVlayout
p433
Vsplith
p434
sVpercent
p435
F0.25
sVworkspace_layout
p436
Vdefault
p437
sVwindow
p438
NsVnodes
p439
(lp440
(dp441
Vwindow_properties
p442
(dp443
Vinstance
p444
VNavigator
p445
sVwindow_role
p446
Vbrowser
p447
sVclass
p448
VFirefox
p449
sVtitle
p450
Vbspwm/panel_bar at master  baskerville/bspwm  GitHub - Vimperator
p451
ssVfullscreen_mode
p452
I0
sVorientation
p453
Vnone
p454
sg222
S'firefox'
p455
sVfocus
p456
(lp457
sVurgent
p458
I00
sVlast_split_layout
p459
Vsplith
p460
sVfloating
p461
Vauto_off
p462
sVborder
p463
Vpixel
p464
sVid
p465
I30910320
sVcurrent_border_width
p466
I-1
sVlayout
p467
Vsplith
p468
sVpercent
p469
F1.0
sVworkspace_layout
p470
Vdefault
p471
sVwindow
p472
I39846047
sVnodes
p473
(lp474
sVtype
p475
Vcon
p476
sVswallows
p477
(lp478
sVfocused
p479
I00
sVscratchpad_state
p480
Vnone
p481
sVrect
p482
(dp483
g102
I17
sg103
I0
sVheight
p484
I1063
sVwidth
p485
I1920
ssVwindow_rect
p486
(dp487
g102
I1
sg103
I1
sVheight
p488
I1061
sVwidth
p489
I1918
ssVname
p490
Vbspwm/panel_bar at master  baskerville/bspwm  GitHub - Vimperator
p491
sVgeometry
p492
(dp493
g102
I0
sg103
I0
sVheight
p494
I1061
sVwidth
p495
I1918
ssVfloating_nodes
p496
(lp497
sasVtype
p498
Vworkspace
p499
sVswallows
p500
(lp501
sVfocused
p502
I00
sVscratchpad_state
p503
Vnone
p504
sVrect
p505
(dp506
g102
I17
sg103
I0
sVheight
p507
I1063
sVwidth
p508
I1920
ssVwindow_rect
p509
(dp510
g102
I0
sg103
I0
sVheight
p511
I0
sVwidth
p512
I0
ssVname
p513
V2:Web
p514
sVgeometry
p515
(dp516
g102
I0
sg103
I0
sVheight
p517
I0
sVwidth
p518
I0
ssVfloating_nodes
p519
(lp520
sa(dp521
Vfullscreen_mode
p522
I0
sVorientation
p523
Vhorizontal
p524
sVfocus
p525
(lp526
I30912192
aI30911584
asVurgent
p527
I00
sVnum
p528
I3
sVlast_split_layout
p529
Vsplith
p530
sVfloating
p531
Vauto_off
p532
sVborder
p533
Vpixel
p534
sVid
p535
I30911184
sVcurrent_border_width
p536
I-1
sVlayout
p537
Vsplith
p538
sVpercent
p539
F0.25
sVworkspace_layout
p540
Vdefault
p541
sVwindow
p542
NsVnodes
p543
(lp544
(dp545
Vwindow_properties
p546
(dp547
Vinstance
p548
VNavigator
p549
sVwindow_role
p550
Vbrowser
p551
sVclass
p552
VFirefox
p553
sVtitle
p554
VBob Burton's Cubewhiz.com - Vimperator
p555
ssVfullscreen_mode
p556
I0
sVorientation
p557
Vnone
p558
sg222
S'firefox'
p559
sVfocus
p560
(lp561
sVurgent
p562
I00
sVlast_split_layout
p563
Vsplith
p564
sVfloating
p565
Vauto_off
p566
sVborder
p567
Vpixel
p568
sVid
p569
I30911584
sVcurrent_border_width
p570
I-1
sVlayout
p571
Vsplith
p572
sVpercent
p573
F0.5
sVworkspace_layout
p574
Vdefault
p575
sVwindow
p576
I40317826
sVnodes
p577
(lp578
sVtype
p579
Vcon
p580
sVswallows
p581
(lp582
sVfocused
p583
I00
sVscratchpad_state
p584
Vnone
p585
sVrect
p586
(dp587
g102
I17
sg103
I0
sVheight
p588
I1063
sVwidth
p589
I960
ssVwindow_rect
p590
(dp591
g102
I1
sg103
I1
sVheight
p592
I1061
sVwidth
p593
I958
ssVname
p594
VBob Burton's Cubewhiz.com - Vimperator
p595
sVgeometry
p596
(dp597
g102
I19
sg103
I2
sVheight
p598
I1061
sVwidth
p599
I1918
ssVfloating_nodes
p600
(lp601
sa(dp602
Vwindow_properties
p603
(dp604
Vinstance
p605
VNavigator
p606
sVwindow_role
p607
Vbrowser
p608
sVclass
p609
VFirefox
p610
sVtitle
p611
VBob Burton's Cubewhiz.com - Vimperator
p612
ssVfullscreen_mode
p613
I0
sVorientation
p614
Vnone
p615
sg222
S'firefox'
p616
sVfocus
p617
(lp618
sVurgent
p619
I00
sVlast_split_layout
p620
Vsplith
p621
sVfloating
p622
Vauto_off
p623
sVborder
p624
Vpixel
p625
sVid
p626
I30912192
sVcurrent_border_width
p627
I-1
sVlayout
p628
Vsplith
p629
sVpercent
p630
F0.5
sVworkspace_layout
p631
Vdefault
p632
sVwindow
p633
I40319383
sVnodes
p634
(lp635
sVtype
p636
Vcon
p637
sVswallows
p638
(lp639
sVfocused
p640
I00
sVscratchpad_state
p641
Vnone
p642
sVrect
p643
(dp644
g102
I17
sg103
I960
sVheight
p645
I1063
sVwidth
p646
I960
ssVwindow_rect
p647
(dp648
g102
I1
sg103
I1
sVheight
p649
I1061
sVwidth
p650
I958
ssVname
p651
VBob Burton's Cubewhiz.com - Vimperator
p652
sVgeometry
p653
(dp654
g102
I19
sg103
I2
sVheight
p655
I1061
sVwidth
p656
I1918
ssVfloating_nodes
p657
(lp658
sasVtype
p659
Vworkspace
p660
sVswallows
p661
(lp662
sVfocused
p663
I00
sVscratchpad_state
p664
Vnone
p665
sVrect
p666
(dp667
g102
I17
sg103
I0
sVheight
p668
I1063
sVwidth
p669
I1920
ssVwindow_rect
p670
(dp671
g102
I0
sg103
I0
sVheight
p672
I0
sVwidth
p673
I0
ssVname
p674
V3
p675
sVgeometry
p676
(dp677
g102
I0
sg103
I0
sVheight
p678
I0
sVwidth
p679
I0
ssVfloating_nodes
p680
(lp681
sa(dp682
Vfullscreen_mode
p683
I0
sVorientation
p684
Vhorizontal
p685
sVfocus
p686
(lp687
I30914080
asVurgent
p688
I00
sVnum
p689
I10
sVlast_split_layout
p690
Vsplith
p691
sVfloating
p692
Vauto_off
p693
sVborder
p694
Vpixel
p695
sVid
p696
I30913680
sVcurrent_border_width
p697
I-1
sVlayout
p698
Vsplith
p699
sVpercent
p700
F0.25
sVworkspace_layout
p701
Vdefault
p702
sVwindow
p703
NsVnodes
p704
(lp705
(dp706
Vwindow_properties
p707
(dp708
Vinstance
p709
VMail
p710
sVwindow_role
p711
V3pane
p712
sVclass
p713
VThunderbird
p714
sVtitle
p715
VInbox - Personal - Mozilla Thunderbird
p716
ssVfullscreen_mode
p717
I0
sVorientation
p718
Vnone
p719
sg222
S'thunderbird'
p720
sVfocus
p721
(lp722
sVurgent
p723
I00
sVlast_split_layout
p724
Vsplith
p725
sVfloating
p726
Vauto_off
p727
sVborder
p728
Vpixel
p729
sVid
p730
I30914080
sVcurrent_border_width
p731
I-1
sVlayout
p732
Vsplith
p733
sVpercent
p734
F1.0
sVworkspace_layout
p735
Vdefault
p736
sVwindow
p737
I41943199
sVnodes
p738
(lp739
sVtype
p740
Vcon
p741
sVswallows
p742
(lp743
sVfocused
p744
I00
sVscratchpad_state
p745
Vnone
p746
sVrect
p747
(dp748
g102
I0
sg103
I0
sVheight
p749
I1080
sVwidth
p750
I1920
ssVwindow_rect
p751
(dp752
g102
I1
sg103
I1
sVheight
p753
I1078
sVwidth
p754
I1918
ssVname
p755
VInbox - Personal - Mozilla Thunderbird
p756
sVgeometry
p757
(dp758
g102
I0
sg103
I0
sVheight
p759
I1061
sVwidth
p760
I1918
ssVfloating_nodes
p761
(lp762
sasVtype
p763
Vworkspace
p764
sVswallows
p765
(lp766
sVfocused
p767
I00
sVscratchpad_state
p768
Vnone
p769
sVrect
p770
(dp771
g102
I0
sg103
I0
sVheight
p772
I1080
sVwidth
p773
I1920
ssVwindow_rect
p774
(dp775
g102
I0
sg103
I0
sVheight
p776
I0
sVwidth
p777
I0
ssVname
p778
V10:Mail
p779
sVgeometry
p780
(dp781
g102
I0
sg103
I0
sVheight
p782
I0
sVwidth
p783
I0
ssVfloating_nodes
p784
(lp785
sasVtype
p786
Vcon
p787
sVswallows
p788
(lp789
sVfocused
p790
I00
sVscratchpad_state
p791
Vnone
p792
sVrect
p793
(dp794
g102
I17
sg103
I0
sVheight
p795
I1063
sVwidth
p796
I1920
ssVwindow_rect
p797
(dp798
g102
I0
sg103
I0
sVheight
p799
I0
sVwidth
p800
I0
ssVname
p801
Vcontent
p802
sVgeometry
p803
(dp804
g102
I0
sg103
I0
sVheight
p805
I0
sVwidth
p806
I0
ssVfloating_nodes
p807
(lp808
sa(dp809
Vfullscreen_mode
p810
I0
sVorientation
p811
Vnone
p812
sVfocus
p813
(lp814
sVurgent
p815
I00
sVlast_split_layout
p816
Vsplith
p817
sVfloating
p818
Vauto_off
p819
sVborder
p820
Vpixel
p821
sVid
p822
I30915184
sVcurrent_border_width
p823
I-1
sVlayout
p824
Vdockarea
p825
sVpercent
p826
F0.3333333333333333
sVworkspace_layout
p827
Vdefault
p828
sVwindow
p829
NsVnodes
p830
(lp831
sVtype
p832
Vdockarea
p833
sVswallows
p834
(lp835
(dp836
Vdock
p837
I3
sVinsert_where
p838
I2
sasVfocused
p839
I00
sVscratchpad_state
p840
Vnone
p841
sVrect
p842
(dp843
g102
I1080
sg103
I0
sVheight
p844
I0
sVwidth
p845
I1920
ssVwindow_rect
p846
(dp847
g102
I0
sg103
I0
sVheight
p848
I0
sVwidth
p849
I0
ssVname
p850
Vbottomdock
p851
sVgeometry
p852
(dp853
g102
I0
sg103
I0
sVheight
p854
I0
sVwidth
p855
I0
ssVfloating_nodes
p856
(lp857
sasVtype
p858
Voutput
p859
sVswallows
p860
(lp861
sVfocused
p862
I00
sVscratchpad_state
p863
Vnone
p864
sVrect
p865
(dp866
g102
I0
sg103
I0
sVheight
p867
I1080
sVwidth
p868
I1920
ssVwindow_rect
p869
(dp870
g102
I0
sg103
I0
sVheight
p871
I0
sVwidth
p872
I0
ssVname
p873
VLVDS1
p874
sVgeometry
p875
(dp876
g102
I0
sg103
I0
sVheight
p877
I0
sVwidth
p878
I0
ssVfloating_nodes
p879
(lp880
sasVtype
p881
Vroot
p882
sVswallows
p883
(lp884
sVfocused
p885
I00
sVscratchpad_state
p886
Vnone
p887
sVrect
p888
(dp889
g102
I0
sg103
I0
sVheight
p890
I1080
sVwidth
p891
I1920
ssVwindow_rect
p892
(dp893
g102
I0
sg103
I0
sVheight
p894
I0
sVwidth
p895
I0
ssVname
p896
Vroot
p897
sVgeometry
p898
(dp899
g102
I0
sg103
I0
sVheight
p900
I0
sVwidth
p901
I0
ssVfloating_nodes
p902
(lp903
s.